target datalayout = "e-m:e-p270:32:32-p271:32:32-p272:64:64-i64:64-i128:128-f80:128-n8:16:32:64-S128"
target triple = "x86_64-pc-linux-gnu"

%struct.reftable_iterator_vtable = type { ptr, ptr, ptr }
%struct.reftable_iterator = type { ptr, ptr }
%struct.reftable_record = type { i8, %union.anon }
%union.anon = type { %struct.reftable_log_record }
%struct.reftable_log_record = type { ptr, i64, i64, i32, %union.anon.1 }
%union.anon.1 = type { %struct.anon.2 }
%struct.anon.2 = type { [32 x i8], [32 x i8], ptr, ptr, i64, i16, ptr, i64 }

; Function Attrs: nounwind uwtable
define dso_local i32 @reftable_iterator_seek_log_at(ptr noundef %0, ptr noundef %1, i64 noundef %2) #0 {
  %4 = alloca ptr, align 8
  %5 = alloca ptr, align 8
  %6 = alloca i64, align 8
  %7 = alloca %struct.reftable_record, align 8
  store ptr %0, ptr %4, align 8, !tbaa !4
  store ptr %1, ptr %5, align 8, !tbaa !24
  store i64 %2, ptr %6, align 8, !tbaa !33
  call void @llvm.lifetime.start.p0(i64 152, ptr %7) #7
  call void @llvm.memset.p0.i64(ptr align 8 %7, i8 0, i64 152, i1 false)
  %8 = getelementptr inbounds nuw %struct.reftable_record, ptr %7, i32 0, i32 0
  store i8 103, ptr %8, align 8, !tbaa !54
  %9 = getelementptr inbounds nuw %struct.reftable_record, ptr %7, i32 0, i32 1
  %10 = getelementptr inbounds nuw %struct.reftable_log_record, ptr %9, i32 0, i32 0
  %11 = load ptr, ptr %5, align 8, !tbaa !24
  store ptr %11, ptr %10, align 8, !tbaa !62
  %12 = getelementptr inbounds nuw %struct.reftable_log_record, ptr %9, i32 0, i32 2
  %13 = load i64, ptr %6, align 8, !tbaa !33
  store i64 %13, ptr %12, align 8, !tbaa !64
  %14 = load ptr, ptr %4, align 8, !tbaa !4
  %15 = getelementptr inbounds nuw %struct.reftable_iterator, ptr %14, i32 0, i32 0
  %16 = load ptr, ptr %15, align 8, !tbaa !11
  %17 = getelementptr inbounds nuw %struct.reftable_iterator_vtable, ptr %16, i32 0, i32 0
  %18 = load ptr, ptr %17, align 8, !tbaa !14
  %19 = load ptr, ptr %4, align 8, !tbaa !4
  %20 = getelementptr inbounds nuw %struct.reftable_iterator, ptr %19, i32 0, i32 1
  %21 = load ptr, ptr %20, align 8, !tbaa !16
  %22 = call i32 %18(ptr noundef %21, ptr noundef %7)
  call void @llvm.lifetime.end.p0(i64 152, ptr %7) #7
  ret i32 %22
}

; Function Attrs: nounwind uwtable
define dso_local i32 @reftable_iterator_seek_log(ptr noundef %0, ptr noundef %1) #0 {
  %3 = alloca ptr, align 8
  %4 = alloca ptr, align 8
  store ptr %0, ptr %3, align 8, !tbaa !4
  store ptr %1, ptr %4, align 8, !tbaa !24
  %5 = load ptr, ptr %3, align 8, !tbaa !4
  %6 = load ptr, ptr %4, align 8, !tbaa !24
  %7 = call i32 @reftable_iterator_seek_log_at(ptr noundef %5, ptr noundef %6, i64 noundef -1)
  ret i32 %7
}